; Function Attrs: mustprogress uwtable
define noundef zeroext i1 @_ZN26ImGuiSelectionBasicStorage19GetNextSelectedItemEPPvPj(ptr noundef nonnull align 8 dereferenceable(48) %0, ptr noundef captures(none) %1, ptr noundef writeonly captures(none) %2) local_unnamed_addr #6 align 2 {
  %4 = load ptr, ptr %1, align 8, !tbaa !663
  %5 = getelementptr inbounds nuw i8, ptr %0, i64 32
  %6 = getelementptr inbounds nuw i8, ptr %0, i64 40
  %7 = load ptr, ptr %6, align 8, !tbaa !664
  %8 = load i32, ptr %5, align 8, !tbaa !665
  %9 = sext i32 %8 to i64
  %10 = getelementptr inbounds %struct.ImGuiStoragePair, ptr %7, i64 %9
  %11 = getelementptr inbounds nuw i8, ptr %0, i64 4
  %12 = load i8, ptr %11, align 4, !tbaa !656, !range !153, !noundef !154
  %13 = trunc nuw i8 %12 to i1
  %14 = icmp eq ptr %4, null
  %or.cond = select i1 %13, i1 %14, i1 false
  %15 = icmp ne ptr %7, null
  %or.cond3 = select i1 %or.cond, i1 %15, i1 false
  %16 = icmp ugt i32 %8, 1
  %or.cond28 = select i1 %or.cond3, i1 %16, i1 false
  br i1 %or.cond28, label %17, label %_ZL7ImQsortPvmmPFiPKvS1_E.exit

17:                                               ; preds = %3
  tail call void @qsort(ptr noundef nonnull %7, i64 noundef range(i64 -2147483648, 2147483648) %9, i64 noundef 16, ptr noundef nonnull @_ZL22PairComparerByValueIntPKvS0_)
  %.pre = load ptr, ptr %6, align 8
  br label %_ZL7ImQsortPvmmPFiPKvS1_E.exit

_ZL7ImQsortPvmmPFiPKvS1_E.exit:                   ; preds = %17, %3
  %18 = phi ptr [ %.pre, %17 ], [ %7, %3 ]
  %spec.select = select i1 %14, ptr %18, ptr %4
  %.not = icmp eq ptr %spec.select, %10
  br i1 %.not, label %.loopexit, label %.preheader

.preheader:                                       ; preds = %_ZL7ImQsortPvmmPFiPKvS1_E.exit, %.preheader
  %.2 = phi ptr [ %24, %.preheader ], [ %spec.select, %_ZL7ImQsortPvmmPFiPKvS1_E.exit ]
  %19 = getelementptr inbounds nuw i8, ptr %.2, i64 8
  %20 = load i32, ptr %19, align 8, !tbaa !341
  %21 = icmp eq i32 %20, 0
  %22 = icmp ult ptr %.2, %10
  %23 = select i1 %21, i1 %22, i1 false
  %24 = getelementptr inbounds nuw i8, ptr %.2, i64 16
  br i1 %23, label %.preheader, label %.loopexit, !llvm.loop !666

.loopexit:                                        ; preds = %.preheader, %_ZL7ImQsortPvmmPFiPKvS1_E.exit
  %.1 = phi ptr [ %spec.select, %_ZL7ImQsortPvmmPFiPKvS1_E.exit ], [ %.2, %.preheader ]
  %25 = icmp ne ptr %.1, %10
  %.idx = select i1 %25, i64 16, i64 0
  %26 = getelementptr inbounds nuw i8, ptr %.1, i64 %.idx
  store ptr %26, ptr %1, align 8, !tbaa !663
  br i1 %25, label %.thread, label %28

.thread:                                          ; preds = %.loopexit
  %27 = load i32, ptr %.1, align 8, !tbaa !667
  store i32 %27, ptr %2, align 4, !tbaa !177
  br label %32

28:                                               ; preds = %.loopexit
  store i32 0, ptr %2, align 4, !tbaa !177
  %29 = load i8, ptr %11, align 4, !tbaa !656, !range !153, !noundef !154
  %30 = trunc nuw i8 %29 to i1
  br i1 %30, label %31, label %32

31:                                               ; preds = %28
  tail call void @_ZN12ImGuiStorage14BuildSortByKeyEv(ptr noundef nonnull align 8 dereferenceable(16) %5)
  br label %32

32:                                               ; preds = %.thread, %28, %31
  ret i1 %25
}